; ModuleID = '46/1986.c'
source_filename = "46/1986.c"
target datalayout = "e-m:e-p270:32:32-p271:32:32-p272:64:64-i64:64-f80:128-n8:16:32:64-S128"
target triple = "x86_64-pc-linux-gnu"

@.str = private unnamed_addr constant [6 x i8] c"%d %d\00", align 1
@.str.1 = private unnamed_addr constant [3 x i8] c"%d\00", align 1
@.str.2 = private unnamed_addr constant [4 x i8] c"%d\0A\00", align 1

; Function Attrs: noinline nounwind uwtable
define dso_local i32 @main() #0 {
  %1 = alloca i32, align 4
  %2 = alloca i32, align 4
  %3 = alloca i32, align 4
  %4 = alloca i32, align 4
  %5 = alloca i32, align 4
  %6 = alloca i32, align 4
  %7 = alloca i32, align 4
  %8 = alloca [100 x [100 x i32]], align 16
  store i32 0, i32* %1, align 4
  %9 = call i32 (i8*, ...) @__isoc99_scanf(i8* getelementptr inbounds ([6 x i8], [6 x i8]* @.str, i64 0, i64 0), i32* %4, i32* %5)
  store i32 0, i32* %2, align 4
  br label %10

10:                                               ; preds = %31, %0
  %11 = load i32, i32* %2, align 4
  %12 = load i32, i32* %4, align 4
  %13 = icmp slt i32 %11, %12
  br i1 %13, label %14, label %34

14:                                               ; preds = %10
  store i32 0, i32* %3, align 4
  br label %15

15:                                               ; preds = %27, %14
  %16 = load i32, i32* %3, align 4
  %17 = load i32, i32* %5, align 4
  %18 = icmp slt i32 %16, %17
  br i1 %18, label %19, label %30

19:                                               ; preds = %15
  %20 = load i32, i32* %2, align 4
  %21 = sext i32 %20 to i64
  %22 = getelementptr inbounds [100 x [100 x i32]], [100 x [100 x i32]]* %8, i64 0, i64 %21
  %23 = load i32, i32* %3, align 4
  %24 = sext i32 %23 to i64
  %25 = getelementptr inbounds [100 x i32], [100 x i32]* %22, i64 0, i64 %24
  %26 = call i32 (i8*, ...) @__isoc99_scanf(i8* getelementptr inbounds ([3 x i8], [3 x i8]* @.str.1, i64 0, i64 0), i32* %25)
  br label %27

27:                                               ; preds = %19
  %28 = load i32, i32* %3, align 4
  %29 = add nsw i32 %28, 1
  store i32 %29, i32* %3, align 4
  br label %15

30:                                               ; preds = %15
  br label %31

31:                                               ; preds = %30
  %32 = load i32, i32* %2, align 4
  %33 = add nsw i32 %32, 1
  store i32 %33, i32* %2, align 4
  br label %10

34:                                               ; preds = %10
  store i32 0, i32* %6, align 4
  store i32 0, i32* %2, align 4
  store i32 0, i32* %7, align 4
  store i32 0, i32* %3, align 4
  br label %35

35:                                               ; preds = %188, %34
  %36 = load i32, i32* %2, align 4
  %37 = sext i32 %36 to i64
  %38 = getelementptr inbounds [100 x [100 x i32]], [100 x [100 x i32]]* %8, i64 0, i64 %37
  %39 = load i32, i32* %3, align 4
  %40 = sext i32 %39 to i64
  %41 = getelementptr inbounds [100 x i32], [100 x i32]* %38, i64 0, i64 %40
  %42 = load i32, i32* %41, align 4
  %43 = icmp eq i32 %42, 0
  br i1 %43, label %44, label %45

44:                                               ; preds = %35
  br label %189

45:                                               ; preds = %35
  %46 = load i32, i32* %2, align 4
  %47 = sext i32 %46 to i64
  %48 = getelementptr inbounds [100 x [100 x i32]], [100 x [100 x i32]]* %8, i64 0, i64 %47
  %49 = load i32, i32* %3, align 4
  %50 = sext i32 %49 to i64
  %51 = getelementptr inbounds [100 x i32], [100 x i32]* %48, i64 0, i64 %50
  %52 = load i32, i32* %51, align 4
  %53 = call i32 (i8*, ...) @printf(i8* getelementptr inbounds ([4 x i8], [4 x i8]* @.str.2, i64 0, i64 0), i32 %52)
  %54 = load i32, i32* %2, align 4
  %55 = sext i32 %54 to i64
  %56 = getelementptr inbounds [100 x [100 x i32]], [100 x [100 x i32]]* %8, i64 0, i64 %55
  %57 = load i32, i32* %3, align 4
  %58 = sext i32 %57 to i64
  %59 = getelementptr inbounds [100 x i32], [100 x i32]* %56, i64 0, i64 %58
  store i32 0, i32* %59, align 4
  %60 = load i32, i32* %2, align 4
  %61 = load i32, i32* %6, align 4
  %62 = icmp eq i32 %60, %61
  br i1 %62, label %63, label %76

63:                                               ; preds = %45
  %64 = load i32, i32* %3, align 4
  %65 = load i32, i32* %5, align 4
  %66 = sub nsw i32 %65, 1
  %67 = icmp slt i32 %64, %66
  br i1 %67, label %68, label %76

68:                                               ; preds = %63
  %69 = load i32, i32* %3, align 4
  %70 = load i32, i32* %7, align 4
  %71 = sub nsw i32 %70, 1
  %72 = icmp sgt i32 %69, %71
  br i1 %72, label %73, label %76

73:                                               ; preds = %68
  %74 = load i32, i32* %3, align 4
  %75 = add nsw i32 %74, 1
  store i32 %75, i32* %3, align 4
  br label %188

76:                                               ; preds = %68, %63, %45
  %77 = load i32, i32* %2, align 4
  %78 = load i32, i32* %6, align 4
  %79 = icmp eq i32 %77, %78
  br i1 %79, label %80, label %90

80:                                               ; preds = %76
  %81 = load i32, i32* %3, align 4
  %82 = load i32, i32* %5, align 4
  %83 = sub nsw i32 %82, 1
  %84 = icmp eq i32 %81, %83
  br i1 %84, label %85, label %90

85:                                               ; preds = %80
  %86 = load i32, i32* %2, align 4
  %87 = add nsw i32 %86, 1
  store i32 %87, i32* %2, align 4
  %88 = load i32, i32* %4, align 4
  %89 = add nsw i32 %88, -1
  store i32 %89, i32* %4, align 4
  br label %187

90:                                               ; preds = %80, %76
  %91 = load i32, i32* %2, align 4
  %92 = load i32, i32* %4, align 4
  %93 = icmp slt i32 %91, %92
  br i1 %93, label %94, label %106

94:                                               ; preds = %90
  %95 = load i32, i32* %2, align 4
  %96 = load i32, i32* %6, align 4
  %97 = icmp sgt i32 %95, %96
  br i1 %97, label %98, label %106

98:                                               ; preds = %94
  %99 = load i32, i32* %3, align 4
  %100 = load i32, i32* %5, align 4
  %101 = sub nsw i32 %100, 1
  %102 = icmp eq i32 %99, %101
  br i1 %102, label %103, label %106

103:                                              ; preds = %98
  %104 = load i32, i32* %2, align 4
  %105 = add nsw i32 %104, 1
  store i32 %105, i32* %2, align 4
  br label %186

106:                                              ; preds = %98, %94, %90
  %107 = load i32, i32* %2, align 4
  %108 = load i32, i32* %4, align 4
  %109 = icmp eq i32 %107, %108
  br i1 %109, label %110, label %120

110:                                              ; preds = %106
  %111 = load i32, i32* %3, align 4
  %112 = load i32, i32* %5, align 4
  %113 = sub nsw i32 %112, 1
  %114 = icmp eq i32 %111, %113
  br i1 %114, label %115, label %120

115:                                              ; preds = %110
  %116 = load i32, i32* %3, align 4
  %117 = add nsw i32 %116, -1
  store i32 %117, i32* %3, align 4
  %118 = load i32, i32* %7, align 4
  %119 = add nsw i32 %118, 1
  store i32 %119, i32* %7, align 4
  br label %185

120:                                              ; preds = %110, %106
  %121 = load i32, i32* %2, align 4
  %122 = load i32, i32* %4, align 4
  %123 = icmp eq i32 %121, %122
  br i1 %123, label %124, label %137

124:                                              ; preds = %120
  %125 = load i32, i32* %3, align 4
  %126 = load i32, i32* %7, align 4
  %127 = sub nsw i32 %126, 1
  %128 = icmp sgt i32 %125, %127
  br i1 %128, label %129, label %137

129:                                              ; preds = %124
  %130 = load i32, i32* %3, align 4
  %131 = load i32, i32* %5, align 4
  %132 = sub nsw i32 %131, 1
  %133 = icmp slt i32 %130, %132
  br i1 %133, label %134, label %137

134:                                              ; preds = %129
  %135 = load i32, i32* %3, align 4
  %136 = add nsw i32 %135, -1
  store i32 %136, i32* %3, align 4
  br label %184

137:                                              ; preds = %129, %124, %120
  %138 = load i32, i32* %2, align 4
  %139 = load i32, i32* %4, align 4
  %140 = icmp eq i32 %138, %139
  br i1 %140, label %141, label %151

141:                                              ; preds = %137
  %142 = load i32, i32* %3, align 4
  %143 = load i32, i32* %7, align 4
  %144 = sub nsw i32 %143, 1
  %145 = icmp eq i32 %142, %144
  br i1 %145, label %146, label %151

146:                                              ; preds = %141
  %147 = load i32, i32* %2, align 4
  %148 = add nsw i32 %147, -1
  store i32 %148, i32* %2, align 4
  %149 = load i32, i32* %6, align 4
  %150 = add nsw i32 %149, 1
  store i32 %150, i32* %6, align 4
  br label %183

151:                                              ; preds = %141, %137
  %152 = load i32, i32* %2, align 4
  %153 = load i32, i32* %6, align 4
  %154 = icmp sgt i32 %152, %153
  br i1 %154, label %155, label %167

155:                                              ; preds = %151
  %156 = load i32, i32* %2, align 4
  %157 = load i32, i32* %4, align 4
  %158 = icmp slt i32 %156, %157
  br i1 %158, label %159, label %167

159:                                              ; preds = %155
  %160 = load i32, i32* %3, align 4
  %161 = load i32, i32* %7, align 4
  %162 = sub nsw i32 %161, 1
  %163 = icmp eq i32 %160, %162
  br i1 %163, label %164, label %167

164:                                              ; preds = %159
  %165 = load i32, i32* %2, align 4
  %166 = add nsw i32 %165, -1
  store i32 %166, i32* %2, align 4
  br label %182

167:                                              ; preds = %159, %155, %151
  %168 = load i32, i32* %2, align 4
  %169 = load i32, i32* %6, align 4
  %170 = icmp eq i32 %168, %169
  br i1 %170, label %171, label %181

171:                                              ; preds = %167
  %172 = load i32, i32* %3, align 4
  %173 = load i32, i32* %7, align 4
  %174 = sub nsw i32 %173, 1
  %175 = icmp eq i32 %172, %174
  br i1 %175, label %176, label %181

176:                                              ; preds = %171
  %177 = load i32, i32* %3, align 4
  %178 = add nsw i32 %177, 1
  store i32 %178, i32* %3, align 4
  %179 = load i32, i32* %5, align 4
  %180 = add nsw i32 %179, -1
  store i32 %180, i32* %5, align 4
  br label %181

181:                                              ; preds = %176, %171, %167
  br label %182

182:                                              ; preds = %181, %164
  br label %183

183:                                              ; preds = %182, %146
  br label %184

184:                                              ; preds = %183, %134
  br label %185

185:                                              ; preds = %184, %115
  br label %186

186:                                              ; preds = %185, %103
  br label %187

187:                                              ; preds = %186, %85
  br label %188

188:                                              ; preds = %187, %73
  br label %35

189:                                              ; preds = %44
  ret i32 0
}

declare dso_local i32 @__isoc99_scanf(i8*, ...) #1

declare dso_local i32 @printf(i8*, ...) #1


!llvm.module.flags = !{!0}
!llvm.ident = !{!1}

!0 = !{i32 1, !"wchar_size", i32 4}
!1 = !{!"clang version 10.0.0-4ubuntu1 "}
